target datalayout = "e-m:e-p270:32:32-p271:32:32-p272:64:64-i64:64-i128:128-f80:128-n8:16:32:64-S128"
target triple = "x86_64-pc-linux-gnu"

%struct.pmix_mca_base_framework_t = type { ptr, ptr, ptr, ptr, ptr, ptr, i32, i32, ptr, ptr, i32, i32, %struct.pmix_list_t, %struct.pmix_list_t }
%struct.pmix_list_t = type { %struct.pmix_object_t, %struct.pmix_list_item_t, i64 }
%struct.pmix_object_t = type { %union.pthread_mutex_t, ptr, i32, %struct.pmix_tma }
%union.pthread_mutex_t = type { %struct.__pthread_mutex_s }
%struct.__pthread_mutex_s = type { i32, i32, i32, i32, i32, i16, i16, %struct.__pthread_internal_list }
%struct.__pthread_internal_list = type { ptr, ptr }
%struct.pmix_tma = type { ptr, ptr, ptr, ptr, ptr, ptr, ptr, ptr }
%struct.pmix_list_item_t = type { %struct.pmix_object_t, ptr, ptr, i32 }
%struct.pmix_output_desc_t = type { i8, i8, i32, i8, i32, ptr, ptr, i32, ptr, i32, i8, i8, i8, i8, ptr, i32, i32 }
%struct.pmix_pnet_globals_t = type { %struct.pmix_list_t, %struct.pmix_list_t, %struct.pmix_list_t, i8 }
%struct.pmix_iof_flags_t = type { i8, i8, i8, i8, i8, i8, i8, ptr, ptr, i8, i8, i8, i8, i8, i8 }
%struct.pmix_class_t = type { ptr, ptr, ptr, ptr, i32, i32, ptr, ptr, i64 }
%struct.pmix_namespace_t = type { %struct.pmix_list_item_t, ptr, %struct.anon, i32, i64, i64, i8, i8, ptr, i64, i64, %struct.pmix_list_t, %struct.pmix_personality_t, %struct.pmix_epilog_t, %struct.pmix_list_t, %struct.pmix_iof_flags_t, %struct.pmix_list_t }
%struct.anon = type { i8, i8, i8 }
%struct.pmix_personality_t = type { i8, ptr, ptr, ptr }
%struct.pmix_epilog_t = type { i32, i32, %struct.pmix_list_t, %struct.pmix_list_t, %struct.pmix_list_t }
%struct.pmix_pnet_base_active_module_t = type { %struct.pmix_list_item_t, i32, ptr, ptr }
%struct.pmix_pnet_module_t = type { ptr, ptr, ptr, ptr, ptr, ptr, ptr, ptr, ptr, ptr, ptr, ptr, ptr, ptr }
%struct.pmix_nspace_env_cache_t = type { %struct.pmix_list_item_t, ptr, %struct.pmix_list_t }

@pmix_pnet_base_framework = external global %struct.pmix_mca_base_framework_t, align 8
@pmix_output_info = external global [0 x %struct.pmix_output_desc_t], align 8
@pmix_pnet_globals = external global %struct.pmix_pnet_globals_t, align 8
@.str.7 = private unnamed_addr constant [31 x i8] c"pnet: deregister_nspace called\00", align 1
@.str.10 = private unnamed_addr constant [21 x i8] c"pthread_mutex_lock()\00", align 1

; Function Attrs: inlinehint nounwind uwtable
define internal void @pmix_tma_free(ptr noundef %0, ptr noundef %1) #3 {
  %3 = alloca ptr, align 8
  %4 = alloca ptr, align 8
  store ptr %0, ptr %3, align 8, !tbaa !76
  store ptr %1, ptr %4, align 8, !tbaa !27
  %5 = load ptr, ptr %3, align 8, !tbaa !76
  %6 = icmp ne ptr null, %5
  br i1 %6, label %7, label %13

7:                                                ; preds = %2
  %8 = load ptr, ptr %3, align 8, !tbaa !76
  %9 = getelementptr inbounds nuw %struct.pmix_tma, ptr %8, i32 0, i32 5
  %10 = load ptr, ptr %9, align 8, !tbaa !122
  %11 = load ptr, ptr %3, align 8, !tbaa !76
  %12 = load ptr, ptr %4, align 8, !tbaa !27
  call void %10(ptr noundef %11, ptr noundef %12)
  br label %15

13:                                               ; preds = %2
  %14 = load ptr, ptr %4, align 8, !tbaa !27
  call void @free(ptr noundef %14) #11
  br label %15

15:                                               ; preds = %13, %7
  ret void
}

; Function Attrs: inlinehint nounwind uwtable
define internal void @pmix_obj_run_destructors(ptr noundef %0) #3 {
  %2 = alloca ptr, align 8
  %3 = alloca ptr, align 8
  store ptr %0, ptr %2, align 8, !tbaa !80
  call void @llvm.lifetime.start.p0(i64 8, ptr %3) #11
  %4 = load ptr, ptr %2, align 8, !tbaa !80
  %5 = getelementptr inbounds nuw %struct.pmix_object_t, ptr %4, i32 0, i32 1
  %6 = load ptr, ptr %5, align 8, !tbaa !83
  %7 = getelementptr inbounds nuw %struct.pmix_class_t, ptr %6, i32 0, i32 7
  %8 = load ptr, ptr %7, align 8, !tbaa !120
  store ptr %8, ptr %3, align 8, !tbaa !27
  br label %9

9:                                                ; preds = %13, %1
  %10 = load ptr, ptr %3, align 8, !tbaa !27
  %11 = load ptr, ptr %10, align 8, !tbaa !27
  %12 = icmp ne ptr null, %11
  br i1 %12, label %13, label %19

13:                                               ; preds = %9
  %14 = load ptr, ptr %3, align 8, !tbaa !27
  %15 = load ptr, ptr %14, align 8, !tbaa !27
  %16 = load ptr, ptr %2, align 8, !tbaa !80
  call void %15(ptr noundef %16)
  %17 = load ptr, ptr %3, align 8, !tbaa !27
  %18 = getelementptr inbounds nuw ptr, ptr %17, i32 1
  store ptr %18, ptr %3, align 8, !tbaa !27
  br label %9, !llvm.loop !121

19:                                               ; preds = %9
  call void @llvm.lifetime.end.p0(i64 8, ptr %3) #11
  ret void
}

; Function Attrs: alwaysinline nounwind uwtable
define internal i32 @pmix_obj_update(ptr noundef %0, i32 noundef %1) #6 {
  %3 = alloca ptr, align 8
  %4 = alloca i32, align 4
  %5 = alloca i32, align 4
  store ptr %0, ptr %3, align 8, !tbaa !80
  store i32 %1, ptr %4, align 4, !tbaa !72
  call void @llvm.lifetime.start.p0(i64 4, ptr %5) #11
  %6 = load ptr, ptr %3, align 8, !tbaa !80
  %7 = getelementptr inbounds nuw %struct.pmix_object_t, ptr %6, i32 0, i32 0
  %8 = call i32 @pthread_mutex_lock(ptr noundef %7) #11
  store i32 %8, ptr %5, align 4, !tbaa !72
  %9 = load i32, ptr %5, align 4, !tbaa !72
  %10 = icmp eq i32 %9, 35
  br i1 %10, label %11, label %14

11:                                               ; preds = %2
  %12 = load i32, ptr %5, align 4, !tbaa !72
  %13 = call ptr @__errno_location() #13
  store i32 %12, ptr %13, align 4, !tbaa !72
  call void @perror(ptr noundef @.str.10)
  call void @abort() #14
  unreachable

14:                                               ; preds = %2
  %15 = load i32, ptr %4, align 4, !tbaa !72
  %16 = load ptr, ptr %3, align 8, !tbaa !80
  %17 = getelementptr inbounds nuw %struct.pmix_object_t, ptr %16, i32 0, i32 2
  %18 = load i32, ptr %17, align 8, !tbaa !84
  %19 = add nsw i32 %18, %15
  store i32 %19, ptr %17, align 8, !tbaa !84
  store i32 %19, ptr %5, align 4, !tbaa !72
  %20 = load ptr, ptr %3, align 8, !tbaa !80
  %21 = getelementptr inbounds nuw %struct.pmix_object_t, ptr %20, i32 0, i32 0
  %22 = call i32 @pthread_mutex_unlock(ptr noundef %21) #11
  %23 = load i32, ptr %5, align 4, !tbaa !72
  call void @llvm.lifetime.end.p0(i64 4, ptr %5) #11
  ret i32 %23
}

; Function Attrs: inlinehint nounwind uwtable
define internal ptr @pmix_list_remove_item(ptr noundef %0, ptr noundef %1) #3 {
  %3 = alloca ptr, align 8
  %4 = alloca ptr, align 8
  store ptr %0, ptr %3, align 8, !tbaa !12
  store ptr %1, ptr %4, align 8, !tbaa !93
  %5 = load ptr, ptr %4, align 8, !tbaa !93
  %6 = getelementptr inbounds nuw %struct.pmix_list_item_t, ptr %5, i32 0, i32 1
  %7 = load ptr, ptr %6, align 8, !tbaa !50
  %8 = load ptr, ptr %4, align 8, !tbaa !93
  %9 = getelementptr inbounds nuw %struct.pmix_list_item_t, ptr %8, i32 0, i32 2
  %10 = load ptr, ptr %9, align 8, !tbaa !94
  %11 = getelementptr inbounds nuw %struct.pmix_list_item_t, ptr %10, i32 0, i32 1
  store volatile ptr %7, ptr %11, align 8, !tbaa !50
  %12 = load ptr, ptr %4, align 8, !tbaa !93
  %13 = getelementptr inbounds nuw %struct.pmix_list_item_t, ptr %12, i32 0, i32 2
  %14 = load ptr, ptr %13, align 8, !tbaa !94
  %15 = load ptr, ptr %4, align 8, !tbaa !93
  %16 = getelementptr inbounds nuw %struct.pmix_list_item_t, ptr %15, i32 0, i32 1
  %17 = load ptr, ptr %16, align 8, !tbaa !50
  %18 = getelementptr inbounds nuw %struct.pmix_list_item_t, ptr %17, i32 0, i32 2
  store volatile ptr %14, ptr %18, align 8, !tbaa !94
  %19 = load ptr, ptr %3, align 8, !tbaa !12
  %20 = getelementptr inbounds nuw %struct.pmix_list_t, ptr %19, i32 0, i32 2
  %21 = load volatile i64, ptr %20, align 8, !tbaa !74
  %22 = add i64 %21, -1
  store volatile i64 %22, ptr %20, align 8, !tbaa !74
  %23 = load ptr, ptr %4, align 8, !tbaa !93
  %24 = getelementptr inbounds nuw %struct.pmix_list_item_t, ptr %23, i32 0, i32 2
  %25 = load ptr, ptr %24, align 8, !tbaa !94
  ret ptr %25
}

; Function Attrs: nounwind uwtable
define void @pmix_pnet_base_deregister_nspace(ptr noundef %0) #0 {
  %2 = alloca ptr, align 8
  %3 = alloca ptr, align 8
  %4 = alloca ptr, align 8
  %5 = alloca ptr, align 8
  %6 = alloca i32, align 4
  %7 = alloca ptr, align 8
  store ptr %0, ptr %2, align 8, !tbaa !3
  call void @llvm.lifetime.start.p0(i64 8, ptr %3) #11
  call void @llvm.lifetime.start.p0(i64 8, ptr %4) #11
  call void @llvm.lifetime.start.p0(i64 8, ptr %5) #11
  %8 = load i32, ptr getelementptr inbounds nuw (%struct.pmix_mca_base_framework_t, ptr @pmix_pnet_base_framework, i32 0, i32 11), align 4, !tbaa !14
  %9 = icmp sge i32 %8, 0
  br i1 %9, label %10, label %22

10:                                               ; preds = %1
  %11 = load i32, ptr getelementptr inbounds nuw (%struct.pmix_mca_base_framework_t, ptr @pmix_pnet_base_framework, i32 0, i32 11), align 4, !tbaa !14
  %12 = icmp slt i32 %11, 64
  br i1 %12, label %13, label %22

13:                                               ; preds = %10
  %14 = load i32, ptr getelementptr inbounds nuw (%struct.pmix_mca_base_framework_t, ptr @pmix_pnet_base_framework, i32 0, i32 11), align 4, !tbaa !14
  %15 = sext i32 %14 to i64
  %16 = getelementptr inbounds [0 x %struct.pmix_output_desc_t], ptr @pmix_output_info, i64 0, i64 %15
  %17 = getelementptr inbounds nuw %struct.pmix_output_desc_t, ptr %16, i32 0, i32 2
  %18 = load i32, ptr %17, align 4, !tbaa !24
  %19 = icmp sge i32 %18, 2
  br i1 %19, label %20, label %22

20:                                               ; preds = %13
  %21 = load i32, ptr getelementptr inbounds nuw (%struct.pmix_mca_base_framework_t, ptr @pmix_pnet_base_framework, i32 0, i32 11), align 4, !tbaa !14
  call void (i32, ptr, ...) @pmix_output(i32 noundef %21, ptr noundef @.str.7)
  br label %22

22:                                               ; preds = %20, %13, %10, %1
  %23 = load ptr, ptr %2, align 8, !tbaa !3
  %24 = icmp eq ptr null, %23
  br i1 %24, label %25, label %26

25:                                               ; preds = %22
  store i32 1, ptr %6, align 4
  br label %102

26:                                               ; preds = %22
  store ptr null, ptr %4, align 8, !tbaa !27
  %27 = load ptr, ptr getelementptr inbounds nuw (%struct.pmix_list_item_t, ptr getelementptr inbounds nuw (%struct.pmix_list_t, ptr getelementptr inbounds nuw (%struct.pmix_pnet_globals_t, ptr @pmix_pnet_globals, i32 0, i32 2), i32 0, i32 1), i32 0, i32 1), align 8, !tbaa !95
  store ptr %27, ptr %5, align 8, !tbaa !27
  br label %28

28:                                               ; preds = %45, %26
  %29 = load ptr, ptr %5, align 8, !tbaa !27
  %30 = icmp ne ptr %29, getelementptr inbounds nuw (%struct.pmix_list_t, ptr getelementptr inbounds nuw (%struct.pmix_pnet_globals_t, ptr @pmix_pnet_globals, i32 0, i32 2), i32 0, i32 1)
  br i1 %30, label %31, label %49

31:                                               ; preds = %28
  %32 = load ptr, ptr %5, align 8, !tbaa !27
  %33 = getelementptr inbounds nuw %struct.pmix_nspace_env_cache_t, ptr %32, i32 0, i32 1
  %34 = load ptr, ptr %33, align 8, !tbaa !96
  %35 = getelementptr inbounds nuw %struct.pmix_namespace_t, ptr %34, i32 0, i32 1
  %36 = load ptr, ptr %35, align 8, !tbaa !45
  %37 = load ptr, ptr %2, align 8, !tbaa !3
  %38 = call zeroext i1 @PMIx_Check_nspace(ptr noundef %36, ptr noundef %37)
  br i1 %38, label %39, label %44

39:                                               ; preds = %31
  %40 = load ptr, ptr %5, align 8, !tbaa !27
  store ptr %40, ptr %4, align 8, !tbaa !27
  %41 = load ptr, ptr %4, align 8, !tbaa !27
  %42 = getelementptr inbounds nuw %struct.pmix_nspace_env_cache_t, ptr %41, i32 0, i32 0
  %43 = call ptr @pmix_list_remove_item(ptr noundef getelementptr inbounds nuw (%struct.pmix_pnet_globals_t, ptr @pmix_pnet_globals, i32 0, i32 2), ptr noundef %42)
  br label %49

44:                                               ; preds = %31
  br label %45

45:                                               ; preds = %44
  %46 = load ptr, ptr %5, align 8, !tbaa !27
  %47 = getelementptr inbounds nuw %struct.pmix_list_item_t, ptr %46, i32 0, i32 1
  %48 = load ptr, ptr %47, align 8, !tbaa !50
  store ptr %48, ptr %5, align 8, !tbaa !27
  br label %28, !llvm.loop !117

49:                                               ; preds = %39, %28
  %50 = load ptr, ptr %4, align 8, !tbaa !27
  %51 = icmp eq ptr null, %50
  br i1 %51, label %52, label %53

52:                                               ; preds = %49
  store i32 1, ptr %6, align 4
  br label %102

53:                                               ; preds = %49
  %54 = load ptr, ptr getelementptr inbounds nuw (%struct.pmix_list_item_t, ptr getelementptr inbounds nuw (%struct.pmix_list_t, ptr @pmix_pnet_globals, i32 0, i32 1), i32 0, i32 1), align 8, !tbaa !63
  store ptr %54, ptr %3, align 8, !tbaa !65
  br label %55

55:                                               ; preds = %75, %53
  %56 = load ptr, ptr %3, align 8, !tbaa !65
  %57 = icmp ne ptr %56, getelementptr inbounds nuw (%struct.pmix_list_t, ptr @pmix_pnet_globals, i32 0, i32 1)
  br i1 %57, label %58, label %79

58:                                               ; preds = %55
  %59 = load ptr, ptr %3, align 8, !tbaa !65
  %60 = getelementptr inbounds nuw %struct.pmix_pnet_base_active_module_t, ptr %59, i32 0, i32 2
  %61 = load ptr, ptr %60, align 8, !tbaa !67
  %62 = getelementptr inbounds nuw %struct.pmix_pnet_module_t, ptr %61, i32 0, i32 8
  %63 = load ptr, ptr %62, align 8, !tbaa !118
  %64 = icmp ne ptr null, %63
  br i1 %64, label %65, label %74

65:                                               ; preds = %58
  %66 = load ptr, ptr %3, align 8, !tbaa !65
  %67 = getelementptr inbounds nuw %struct.pmix_pnet_base_active_module_t, ptr %66, i32 0, i32 2
  %68 = load ptr, ptr %67, align 8, !tbaa !67
  %69 = getelementptr inbounds nuw %struct.pmix_pnet_module_t, ptr %68, i32 0, i32 8
  %70 = load ptr, ptr %69, align 8, !tbaa !118
  %71 = load ptr, ptr %4, align 8, !tbaa !27
  %72 = getelementptr inbounds nuw %struct.pmix_nspace_env_cache_t, ptr %71, i32 0, i32 1
  %73 = load ptr, ptr %72, align 8, !tbaa !96
  call void %70(ptr noundef %73)
  br label %74

74:                                               ; preds = %65, %58
  br label %75

75:                                               ; preds = %74
  %76 = load ptr, ptr %3, align 8, !tbaa !65
  %77 = getelementptr inbounds nuw %struct.pmix_list_item_t, ptr %76, i32 0, i32 1
  %78 = load ptr, ptr %77, align 8, !tbaa !50
  store ptr %78, ptr %3, align 8, !tbaa !65
  br label %55, !llvm.loop !119

79:                                               ; preds = %55
  br label %80

80:                                               ; preds = %79
  call void @llvm.lifetime.start.p0(i64 8, ptr %7) #11
  %81 = load ptr, ptr %4, align 8, !tbaa !27
  store ptr %81, ptr %7, align 8, !tbaa !80
  %82 = load ptr, ptr %7, align 8, !tbaa !80
  %83 = call i32 @pmix_obj_update(ptr noundef %82, i32 noundef -1)
  %84 = icmp eq i32 0, %83
  br i1 %84, label %85, label %99

85:                                               ; preds = %80
  %86 = load ptr, ptr %7, align 8, !tbaa !80
  call void @pmix_obj_run_destructors(ptr noundef %86)
  %87 = load ptr, ptr %7, align 8, !tbaa !80
  %88 = getelementptr inbounds nuw %struct.pmix_object_t, ptr %87, i32 0, i32 3
  %89 = getelementptr inbounds nuw %struct.pmix_tma, ptr %88, i32 0, i32 5
  %90 = load ptr, ptr %89, align 8, !tbaa !89
  %91 = icmp ne ptr null, %90
  br i1 %91, label %92, label %96

92:                                               ; preds = %85
  %93 = load ptr, ptr %7, align 8, !tbaa !80
  %94 = getelementptr inbounds nuw %struct.pmix_object_t, ptr %93, i32 0, i32 3
  %95 = load ptr, ptr %4, align 8, !tbaa !27
  call void @pmix_tma_free(ptr noundef %94, ptr noundef %95)
  br label %98

96:                                               ; preds = %85
  %97 = load ptr, ptr %4, align 8, !tbaa !27
  call void @free(ptr noundef %97) #11
  br label %98

98:                                               ; preds = %96, %92
  store ptr null, ptr %4, align 8, !tbaa !27
  br label %99

99:                                               ; preds = %98, %80
  call void @llvm.lifetime.end.p0(i64 8, ptr %7) #11
  br label %100

100:                                              ; preds = %99
  br label %101

101:                                              ; preds = %100
  store i32 0, ptr %6, align 4
  br label %102

102:                                              ; preds = %101, %52, %25
  call void @llvm.lifetime.end.p0(i64 8, ptr %5) #11
  call void @llvm.lifetime.end.p0(i64 8, ptr %4) #11
  call void @llvm.lifetime.end.p0(i64 8, ptr %3) #11
  %103 = load i32, ptr %6, align 4
  switch i32 %103, label %105 [
    i32 0, label %104
    i32 1, label %104
  ]

104:                                              ; preds = %102, %102
  ret void

105:                                              ; preds = %102
  unreachable
}